target datalayout = "e-m:e-p270:32:32-p271:32:32-p272:64:64-i64:64-i128:128-f80:128-n8:16:32:64-S128"
target triple = "x86_64-pc-linux-gnu"

; Function Attrs: nounwind sspstrong uwtable
define internal i32 @mbc_case_fold(i32 noundef %0, ptr noundef %1, ptr noundef %2, ptr noundef %3, ptr noundef %4) #0 {
  %6 = alloca i32, align 4
  %7 = alloca ptr, align 8
  %8 = alloca ptr, align 8
  %9 = alloca ptr, align 8
  %10 = alloca ptr, align 8
  %11 = alloca ptr, align 8
  store i32 %0, ptr %6, align 4, !tbaa !13
  store ptr %1, ptr %7, align 8, !tbaa !14
  store ptr %2, ptr %8, align 8, !tbaa !16
  store ptr %3, ptr %9, align 8, !tbaa !16
  store ptr %4, ptr %10, align 8, !tbaa !17
  call void @llvm.lifetime.start.p0(i64 8, ptr %11) #3
  %12 = load ptr, ptr %7, align 8, !tbaa !14
  %13 = load ptr, ptr %12, align 8, !tbaa !16
  store ptr %13, ptr %11, align 8, !tbaa !16
  %14 = load ptr, ptr %11, align 8, !tbaa !16
  %15 = load i8, ptr %14, align 1, !tbaa !19
  %16 = zext i8 %15 to i64
  %17 = getelementptr inbounds nuw [256 x i8], ptr @EncISO_8859_5_ToLowerCaseTable, i64 0, i64 %16
  %18 = load i8, ptr %17, align 1, !tbaa !19
  %19 = load ptr, ptr %9, align 8, !tbaa !16
  store i8 %18, ptr %19, align 1, !tbaa !19
  %20 = load ptr, ptr %7, align 8, !tbaa !14
  %21 = load ptr, ptr %20, align 8, !tbaa !16
  %22 = getelementptr inbounds nuw i8, ptr %21, i32 1
  store ptr %22, ptr %20, align 8, !tbaa !16
  call void @llvm.lifetime.end.p0(i64 8, ptr %11) #3
  ret i32 1
}