; Function Attrs: mustprogress nofree norecurse nosync nounwind sspstrong willreturn memory(read, argmem: readwrite, inaccessiblemem: none) uwtable
define internal noundef i32 @mbc_case_fold(i32 %0, ptr noundef captures(none) %1, ptr readnone captures(none) %2, ptr noundef writeonly captures(none) initializes((0, 1)) %3, ptr readnone captures(none) %4) #2 {
  %6 = load ptr, ptr %1, align 8, !tbaa !6
  %7 = load i8, ptr %6, align 1, !tbaa !11
  %8 = zext i8 %7 to i64
  %9 = getelementptr inbounds nuw [256 x i8], ptr @EncISO_8859_5_ToLowerCaseTable, i64 0, i64 %8
  %10 = load i8, ptr %9, align 1, !tbaa !11
  store i8 %10, ptr %3, align 1, !tbaa !11
  %11 = load ptr, ptr %1, align 8, !tbaa !6
  %12 = getelementptr inbounds nuw i8, ptr %11, i64 1
  store ptr %12, ptr %1, align 8, !tbaa !6
  ret i32 1
}